target datalayout = "e-m:e-p270:32:32-p271:32:32-p272:64:64-i64:64-i128:128-f80:128-n8:16:32:64-S128"
target triple = "x86_64-pc-linux-gnu"

%struct.FT_ListRec_ = type { ptr, ptr }
%struct.FT_CharMapRec_ = type { ptr, i32, i16, i16 }
%struct.T42_FaceRec_ = type { %struct.FT_FaceRec_, %struct.T1_FontRec_, ptr, ptr, ptr, i64, ptr, [2 x %struct.FT_CharMapRec_], [2 x ptr], %struct.PS_UnicodesRec_ }
%struct.FT_FaceRec_ = type { i64, i64, i64, i64, i64, ptr, ptr, i32, ptr, i32, ptr, %struct.FT_Generic_, %struct.FT_BBox_, i16, i16, i16, i16, i16, i16, i16, i16, ptr, ptr, ptr, ptr, ptr, ptr, %struct.FT_ListRec_, %struct.FT_Generic_, ptr, ptr }
%struct.FT_BBox_ = type { i64, i64, i64, i64 }
%struct.FT_Generic_ = type { ptr, ptr }
%struct.T1_FontRec_ = type { %struct.PS_FontInfoRec_, %struct.PS_FontExtraRec_, %struct.PS_PrivateRec_, ptr, i32, %struct.T1_EncodingRecRec_, ptr, ptr, ptr, i32, ptr, ptr, ptr, i32, ptr, ptr, ptr, i8, i8, %struct.FT_Matrix_, %struct.FT_Vector_, %struct.FT_BBox_, i64, i64 }
%struct.PS_FontInfoRec_ = type { ptr, ptr, ptr, ptr, ptr, i64, i8, i16, i16 }
%struct.PS_FontExtraRec_ = type { i16 }
%struct.PS_PrivateRec_ = type { i32, i32, i8, i8, i8, i8, [14 x i16], [10 x i16], [14 x i16], [10 x i16], i64, i32, i32, [1 x i16], [1 x i16], i8, i8, i8, i8, [13 x i16], [13 x i16], i64, i64, i64, [2 x i16] }
%struct.T1_EncodingRecRec_ = type { i32, i32, i32, ptr, ptr }
%struct.FT_Matrix_ = type { i64, i64, i64, i64 }
%struct.FT_Vector_ = type { i64, i64 }
%struct.PS_UnicodesRec_ = type { %struct.FT_CMapRec_, i32, ptr }
%struct.FT_CMapRec_ = type { %struct.FT_CharMapRec_, ptr }

; Function Attrs: nounwind uwtable
define internal i32 @t42_get_name_index(ptr noundef %0, ptr noundef %1) #0 {
  %3 = alloca i32, align 4
  %4 = alloca ptr, align 8
  %5 = alloca ptr, align 8
  %6 = alloca ptr, align 8
  %7 = alloca i32, align 4
  %8 = alloca ptr, align 8
  %9 = alloca i32, align 4
  store ptr %0, ptr %4, align 8, !tbaa !27
  store ptr %1, ptr %5, align 8, !tbaa !23
  call void @llvm.lifetime.start.p0(i64 8, ptr %6) #7
  %10 = load ptr, ptr %4, align 8, !tbaa !27
  store ptr %10, ptr %6, align 8, !tbaa !33
  call void @llvm.lifetime.start.p0(i64 4, ptr %7) #7
  store i32 0, ptr %7, align 4, !tbaa !29
  br label %11

11:                                               ; preds = %56, %2
  %12 = load i32, ptr %7, align 4, !tbaa !29
  %13 = load ptr, ptr %6, align 8, !tbaa !33
  %14 = getelementptr inbounds nuw %struct.T42_FaceRec_, ptr %13, i32 0, i32 1
  %15 = getelementptr inbounds nuw %struct.T1_FontRec_, ptr %14, i32 0, i32 13
  %16 = load i32, ptr %15, align 8, !tbaa !208
  %17 = icmp slt i32 %12, %16
  br i1 %17, label %18, label %59

18:                                               ; preds = %11
  call void @llvm.lifetime.start.p0(i64 8, ptr %8) #7
  %19 = load ptr, ptr %6, align 8, !tbaa !33
  %20 = getelementptr inbounds nuw %struct.T42_FaceRec_, ptr %19, i32 0, i32 1
  %21 = getelementptr inbounds nuw %struct.T1_FontRec_, ptr %20, i32 0, i32 14
  %22 = load ptr, ptr %21, align 8, !tbaa !207
  %23 = load i32, ptr %7, align 4, !tbaa !29
  %24 = sext i32 %23 to i64
  %25 = getelementptr inbounds ptr, ptr %22, i64 %24
  %26 = load ptr, ptr %25, align 8, !tbaa !23
  store ptr %26, ptr %8, align 8, !tbaa !23
  %27 = load ptr, ptr %5, align 8, !tbaa !23
  %28 = getelementptr inbounds i8, ptr %27, i64 0
  %29 = load i8, ptr %28, align 1, !tbaa !89
  %30 = sext i8 %29 to i32
  %31 = load ptr, ptr %8, align 8, !tbaa !23
  %32 = getelementptr inbounds i8, ptr %31, i64 0
  %33 = load i8, ptr %32, align 1, !tbaa !89
  %34 = sext i8 %33 to i32
  %35 = icmp eq i32 %30, %34
  br i1 %35, label %36, label %52

36:                                               ; preds = %18
  %37 = load ptr, ptr %5, align 8, !tbaa !23
  %38 = load ptr, ptr %8, align 8, !tbaa !23
  %39 = call i32 @strcmp(ptr noundef %37, ptr noundef %38) #8
  %40 = icmp ne i32 %39, 0
  br i1 %40, label %52, label %41

41:                                               ; preds = %36
  %42 = load ptr, ptr %6, align 8, !tbaa !33
  %43 = getelementptr inbounds nuw %struct.T42_FaceRec_, ptr %42, i32 0, i32 1
  %44 = getelementptr inbounds nuw %struct.T1_FontRec_, ptr %43, i32 0, i32 15
  %45 = load ptr, ptr %44, align 8, !tbaa !185
  %46 = load i32, ptr %7, align 4, !tbaa !29
  %47 = sext i32 %46 to i64
  %48 = getelementptr inbounds ptr, ptr %45, i64 %47
  %49 = load ptr, ptr %48, align 8, !tbaa !23
  %50 = call i64 @strtol(ptr noundef %49, ptr noundef null, i32 noundef 10) #7
  %51 = trunc i64 %50 to i32
  store i32 %51, ptr %3, align 4
  store i32 1, ptr %9, align 4
  br label %53

52:                                               ; preds = %36, %18
  store i32 0, ptr %9, align 4
  br label %53

53:                                               ; preds = %52, %41
  call void @llvm.lifetime.end.p0(i64 8, ptr %8) #7
  %54 = load i32, ptr %9, align 4
  switch i32 %54, label %60 [
    i32 0, label %55
  ]

55:                                               ; preds = %53
  br label %56

56:                                               ; preds = %55
  %57 = load i32, ptr %7, align 4, !tbaa !29
  %58 = add nsw i32 %57, 1
  store i32 %58, ptr %7, align 4, !tbaa !29
  br label %11, !llvm.loop !209

59:                                               ; preds = %11
  store i32 0, ptr %3, align 4
  store i32 1, ptr %9, align 4
  br label %60

60:                                               ; preds = %59, %53
  call void @llvm.lifetime.end.p0(i64 4, ptr %7) #7
  call void @llvm.lifetime.end.p0(i64 8, ptr %6) #7
  %61 = load i32, ptr %3, align 4
  ret i32 %61
}