; Function Attrs: nofree nounwind uwtable
define internal i32 @t42_get_name_index(ptr noundef readonly captures(none) %0, ptr noundef readonly captures(none) %1) #3 {
  %3 = getelementptr inbounds nuw i8, ptr %0, i64 640
  %4 = load i32, ptr %3, align 8, !tbaa !239
  %5 = icmp sgt i32 %4, 0
  br i1 %5, label %.lr.ph, label %.loopexit

.lr.ph:                                           ; preds = %2
  %6 = getelementptr inbounds nuw i8, ptr %0, i64 648
  %7 = load ptr, ptr %6, align 8, !tbaa !238
  %8 = load i8, ptr %1, align 1, !tbaa !89
  %wide.trip.count = zext nneg i32 %4 to i64
  br label %9

9:                                                ; preds = %.lr.ph, %23
  %indvars.iv = phi i64 [ 0, %.lr.ph ], [ %indvars.iv.next, %23 ]
  %10 = getelementptr inbounds nuw ptr, ptr %7, i64 %indvars.iv
  %11 = load ptr, ptr %10, align 8, !tbaa !129
  %12 = load i8, ptr %11, align 1, !tbaa !89
  %13 = icmp eq i8 %8, %12
  br i1 %13, label %14, label %23

14:                                               ; preds = %9
  %15 = tail call i32 @strcmp(ptr noundef nonnull dereferenceable(1) %1, ptr noundef nonnull dereferenceable(1) %11) #14
  %.not = icmp eq i32 %15, 0
  br i1 %.not, label %16, label %23

16:                                               ; preds = %14
  %17 = getelementptr inbounds nuw i8, ptr %0, i64 656
  %18 = load ptr, ptr %17, align 8, !tbaa !218
  %19 = getelementptr inbounds nuw ptr, ptr %18, i64 %indvars.iv
  %20 = load ptr, ptr %19, align 8, !tbaa !129
  %21 = tail call i64 @strtol(ptr noundef captures(none) %20, ptr noundef null, i32 noundef 10) #13
  %22 = trunc i64 %21 to i32
  br label %.loopexit

23:                                               ; preds = %14, %9
  %indvars.iv.next = add nuw nsw i64 %indvars.iv, 1
  %exitcond.not = icmp eq i64 %indvars.iv.next, %wide.trip.count
  br i1 %exitcond.not, label %.loopexit, label %9, !llvm.loop !240

.loopexit:                                        ; preds = %23, %2, %16
  %.2 = phi i32 [ %22, %16 ], [ 0, %2 ], [ 0, %23 ]
  ret i32 %.2
}